(dp0
Vengine
p1
S'pdflatex'
p2
sVpackages
p3
c__builtin__
set
p4
((lp5
Vhyperref
p6
aVamsmath
p7
aVlatexsym
p8
aVlipsum
p9
aVcolor
p10
aVinputenc
p11
aVamsthm
p12
aVfontenc
p13
aVbabel
p14
aVmakeidx
p15
aVgraphicx
p16
aVnatbib
p17
aVamssymb
p18
atp19
Rp20
sVfiles_with_guttermarks
p21
g4
((lp22
S'user_manual.tex'
p23
aV/Users/francesco086/Code/FFNN/doc/./user_manual.tex
p24
aV/Users/francesco086/Dropbox/myLibraries/FFNN/doc/./user_manual.tex
p25
atp26
Rp27
sVsynctex
p28
I01
s.